; Function Attrs: mustprogress uwtable
define hidden noundef zeroext i1 @_ZNK19OpenColorIO_v2_5dev19GradingRGBCurveImpl10isIdentityEv(ptr noundef nonnull readonly align 8 captures(none) dereferenceable(72) %0) unnamed_addr #4 align 2 personality ptr @__gxx_personality_v0 {
  %2 = alloca %"class.std::shared_ptr.5", align 8
  %3 = getelementptr inbounds nuw i8, ptr %0, i64 8
  %4 = getelementptr inbounds nuw i8, ptr %2, i64 8
  br label %5

5:                                                ; preds = %_ZNSt12__shared_ptrIKN19OpenColorIO_v2_5dev19GradingBSplineCurveELN9__gnu_cxx12_Lock_policyE2EED2Ev.exit, %1
  %indvars.iv = phi i64 [ 0, %1 ], [ %indvars.iv.next, %_ZNSt12__shared_ptrIKN19OpenColorIO_v2_5dev19GradingBSplineCurveELN9__gnu_cxx12_Lock_policyE2EED2Ev.exit ]
  call void @llvm.lifetime.start.p0(i64 16, ptr nonnull %2) #21
  %6 = getelementptr inbounds nuw [4 x %"class.std::shared_ptr"], ptr %3, i64 0, i64 %indvars.iv
  %7 = load ptr, ptr %6, align 8, !tbaa !16
  store ptr %7, ptr %2, align 8, !tbaa !30
  %8 = getelementptr inbounds nuw i8, ptr %6, i64 8
  %9 = load ptr, ptr %8, align 8, !tbaa !21
  store ptr %9, ptr %4, align 8, !tbaa !21
  %.not.i.i.i = icmp eq ptr %9, null
  br i1 %.not.i.i.i, label %_ZNSt10shared_ptrIKN19OpenColorIO_v2_5dev19GradingBSplineCurveEEC2IS1_vEERKS_IT_E.exit, label %10

10:                                               ; preds = %5
  %11 = getelementptr inbounds nuw i8, ptr %9, i64 8
  %12 = load i8, ptr @__libc_single_threaded, align 1, !tbaa !27
  %.not.i.i.i.i = icmp eq i8 %12, 0
  br i1 %.not.i.i.i.i, label %16, label %13

13:                                               ; preds = %10
  %14 = load i32, ptr %11, align 4, !tbaa !28
  %15 = add nsw i32 %14, 1
  store i32 %15, ptr %11, align 4, !tbaa !28
  br label %_ZNSt10shared_ptrIKN19OpenColorIO_v2_5dev19GradingBSplineCurveEEC2IS1_vEERKS_IT_E.exit

16:                                               ; preds = %10
  %17 = atomicrmw volatile add ptr %11, i32 1 acq_rel, align 4
  br label %_ZNSt10shared_ptrIKN19OpenColorIO_v2_5dev19GradingBSplineCurveEEC2IS1_vEERKS_IT_E.exit

_ZNSt10shared_ptrIKN19OpenColorIO_v2_5dev19GradingBSplineCurveEEC2IS1_vEERKS_IT_E.exit: ; preds = %5, %13, %16
  %18 = invoke noundef zeroext i1 @_ZN19OpenColorIO_v2_5dev22IsGradingCurveIdentityERKSt10shared_ptrIKNS_19GradingBSplineCurveEE(ptr noundef nonnull align 8 dereferenceable(16) %2)
          to label %19 unwind label %42

19:                                               ; preds = %_ZNSt10shared_ptrIKN19OpenColorIO_v2_5dev19GradingBSplineCurveEEC2IS1_vEERKS_IT_E.exit
  %20 = load ptr, ptr %4, align 8, !tbaa !21
  %.not.i.i = icmp eq ptr %20, null
  br i1 %.not.i.i, label %_ZNSt12__shared_ptrIKN19OpenColorIO_v2_5dev19GradingBSplineCurveELN9__gnu_cxx12_Lock_policyE2EED2Ev.exit, label %21

21:                                               ; preds = %19
  %22 = getelementptr inbounds nuw i8, ptr %20, i64 8
  %23 = load atomic i64, ptr %22 acquire, align 8
  %24 = icmp eq i64 %23, 4294967297
  %25 = trunc i64 %23 to i32
  br i1 %24, label %26, label %34

26:                                               ; preds = %21
  store i32 0, ptr %22, align 8, !tbaa !23
  %27 = getelementptr inbounds nuw i8, ptr %20, i64 12
  store i32 0, ptr %27, align 4, !tbaa !26
  %28 = load ptr, ptr %20, align 8, !tbaa !10
  %29 = getelementptr inbounds nuw i8, ptr %28, i64 16
  %30 = load ptr, ptr %29, align 8
  call void %30(ptr noundef nonnull align 8 dereferenceable(16) %20) #21
  %31 = load ptr, ptr %20, align 8, !tbaa !10
  %32 = getelementptr inbounds nuw i8, ptr %31, i64 24
  %33 = load ptr, ptr %32, align 8
  call void %33(ptr noundef nonnull align 8 dereferenceable(16) %20) #21
  br label %_ZNSt12__shared_ptrIKN19OpenColorIO_v2_5dev19GradingBSplineCurveELN9__gnu_cxx12_Lock_policyE2EED2Ev.exit

34:                                               ; preds = %21
  %35 = load i8, ptr @__libc_single_threaded, align 1, !tbaa !27
  %.not.i.i.i9 = icmp eq i8 %35, 0
  br i1 %.not.i.i.i9, label %38, label %36

36:                                               ; preds = %34
  %37 = add nsw i32 %25, -1
  store i32 %37, ptr %22, align 4, !tbaa !28
  br label %_ZN9__gnu_cxx27__exchange_and_add_dispatchEPii.exit.i.i.i

38:                                               ; preds = %34
  %39 = atomicrmw volatile add ptr %22, i32 -1 acq_rel, align 4
  br label %_ZN9__gnu_cxx27__exchange_and_add_dispatchEPii.exit.i.i.i

_ZN9__gnu_cxx27__exchange_and_add_dispatchEPii.exit.i.i.i: ; preds = %38, %36
  %.0.i.i.i.i = phi i32 [ %25, %36 ], [ %39, %38 ]
  %40 = icmp eq i32 %.0.i.i.i.i, 1
  br i1 %40, label %41, label %_ZNSt12__shared_ptrIKN19OpenColorIO_v2_5dev19GradingBSplineCurveELN9__gnu_cxx12_Lock_policyE2EED2Ev.exit, !prof !29

41:                                               ; preds = %_ZN9__gnu_cxx27__exchange_and_add_dispatchEPii.exit.i.i.i
  call void @_ZNSt16_Sp_counted_baseILN9__gnu_cxx12_Lock_policyE2EE24_M_release_last_use_coldEv(ptr noundef nonnull align 8 dereferenceable(16) %20) #21
  br label %_ZNSt12__shared_ptrIKN19OpenColorIO_v2_5dev19GradingBSplineCurveELN9__gnu_cxx12_Lock_policyE2EED2Ev.exit

_ZNSt12__shared_ptrIKN19OpenColorIO_v2_5dev19GradingBSplineCurveELN9__gnu_cxx12_Lock_policyE2EED2Ev.exit: ; preds = %19, %26, %_ZN9__gnu_cxx27__exchange_and_add_dispatchEPii.exit.i.i.i, %41
  call void @llvm.lifetime.end.p0(i64 16, ptr nonnull %2) #21
  %indvars.iv.next = add nuw nsw i64 %indvars.iv, 1
  %exitcond = icmp ne i64 %indvars.iv.next, 4
  %or.cond.not = select i1 %18, i1 %exitcond, i1 false
  br i1 %or.cond.not, label %5, label %44, !llvm.loop !49

42:                                               ; preds = %_ZNSt10shared_ptrIKN19OpenColorIO_v2_5dev19GradingBSplineCurveEEC2IS1_vEERKS_IT_E.exit
  %43 = landingpad { ptr, i32 }
          cleanup
  call void @_ZNSt12__shared_ptrIKN19OpenColorIO_v2_5dev19GradingBSplineCurveELN9__gnu_cxx12_Lock_policyE2EED2Ev(ptr noundef nonnull align 8 dereferenceable(16) %2) #21
  call void @llvm.lifetime.end.p0(i64 16, ptr nonnull %2) #21
  resume { ptr, i32 } %43

44:                                               ; preds = %_ZNSt12__shared_ptrIKN19OpenColorIO_v2_5dev19GradingBSplineCurveELN9__gnu_cxx12_Lock_policyE2EED2Ev.exit
  ret i1 %18
}